target datalayout = "e-m:e-p270:32:32-p271:32:32-p272:64:64-i64:64-i128:128-f80:128-n8:16:32:64-S128"
target triple = "x86_64-pc-linux-gnu"

@.str = private unnamed_addr constant [107 x i8] c"generated/home/dtcxzyw/WorkSpace/Projects/compilers/llvm-opt-benchmark/bench/hdf5/hdf5/src/H5Tinit_float.c\00", align 1
@H5E_DATATYPE_g = external global i64, align 8
@H5E_CANTINIT_g = external global i64, align 8
@.str.3 = private unnamed_addr constant [28 x i8] c"failed to detect byte order\00", align 1
@__func__.H5T__fix_order = private unnamed_addr constant [15 x i8] c"H5T__fix_order\00", align 1
@.str.11 = private unnamed_addr constant [22 x i8] c"n is not a power of 2\00", align 1

; Function Attrs: nounwind uwtable
define internal i32 @H5T__fix_order(i32 noundef %0, i32 noundef %1, ptr noundef %2, ptr noundef %3) #0 {
  %5 = alloca i32, align 4
  %6 = alloca i32, align 4
  %7 = alloca ptr, align 8
  %8 = alloca ptr, align 8
  %9 = alloca i32, align 4
  %10 = alloca i8, align 1
  %11 = alloca i32, align 4
  %12 = alloca i32, align 4
  %13 = alloca i32, align 4
  store i32 %0, ptr %5, align 4
  store i32 %1, ptr %6, align 4
  store ptr %2, ptr %7, align 8
  store ptr %3, ptr %8, align 8
  store i32 0, ptr %9, align 4
  store i8 0, ptr %10, align 1
  %14 = load i32, ptr %6, align 4
  %15 = icmp sle i32 %14, 0
  br i1 %15, label %16, label %31

16:                                               ; preds = %4
  br label %17

17:                                               ; preds = %16
  br label %18

18:                                               ; preds = %17
  br label %19

19:                                               ; preds = %18
  %20 = load i64, ptr @H5E_DATATYPE_g, align 8
  %21 = load i64, ptr @H5E_CANTINIT_g, align 8
  %22 = call i32 (ptr, ptr, i32, i64, i64, ptr, ...) @H5E_printf_stack(ptr noundef @.str, ptr noundef @__func__.H5T__fix_order, i32 noundef 308, i64 noundef %20, i64 noundef %21, ptr noundef @.str.3)
  br label %23

23:                                               ; preds = %19
  store i8 1, ptr %10, align 1
  %24 = load i8, ptr %10, align 1
  %25 = trunc i8 %24 to i1
  %26 = zext i1 %25 to i8
  store i8 %26, ptr %10, align 1
  br label %27

27:                                               ; preds = %23
  br label %28

28:                                               ; preds = %27
  store i32 -1, ptr %9, align 4
  br label %175

29:                                               ; No predecessors!
  br label %30

30:                                               ; preds = %29
  br label %31

31:                                               ; preds = %30, %4
  %32 = load ptr, ptr %7, align 8
  %33 = load i32, ptr %6, align 4
  %34 = sext i32 %33 to i64
  %35 = getelementptr inbounds i32, ptr %32, i64 %34
  %36 = load i32, ptr %35, align 4
  %37 = load ptr, ptr %7, align 8
  %38 = load i32, ptr %6, align 4
  %39 = sub nsw i32 %38, 1
  %40 = sext i32 %39 to i64
  %41 = getelementptr inbounds i32, ptr %37, i64 %40
  %42 = load i32, ptr %41, align 4
  %43 = icmp slt i32 %36, %42
  br i1 %43, label %44, label %77

44:                                               ; preds = %31
  %45 = load i32, ptr %6, align 4
  %46 = icmp slt i32 %45, 2
  br i1 %46, label %61, label %47

47:                                               ; preds = %44
  %48 = load ptr, ptr %7, align 8
  %49 = load i32, ptr %6, align 4
  %50 = sub nsw i32 %49, 1
  %51 = sext i32 %50 to i64
  %52 = getelementptr inbounds i32, ptr %48, i64 %51
  %53 = load i32, ptr %52, align 4
  %54 = load ptr, ptr %7, align 8
  %55 = load i32, ptr %6, align 4
  %56 = sub nsw i32 %55, 2
  %57 = sext i32 %56 to i64
  %58 = getelementptr inbounds i32, ptr %54, i64 %57
  %59 = load i32, ptr %58, align 4
  %60 = icmp slt i32 %53, %59
  br i1 %60, label %61, label %77

61:                                               ; preds = %47, %44
  %62 = load ptr, ptr %8, align 8
  store i32 0, ptr %62, align 4
  store i32 0, ptr %11, align 4
  br label %63

63:                                               ; preds = %73, %61
  %64 = load i32, ptr %11, align 4
  %65 = load i32, ptr %5, align 4
  %66 = icmp slt i32 %64, %65
  br i1 %66, label %67, label %76

67:                                               ; preds = %63
  %68 = load i32, ptr %11, align 4
  %69 = load ptr, ptr %7, align 8
  %70 = load i32, ptr %11, align 4
  %71 = sext i32 %70 to i64
  %72 = getelementptr inbounds i32, ptr %69, i64 %71
  store i32 %68, ptr %72, align 4
  br label %73

73:                                               ; preds = %67
  %74 = load i32, ptr %11, align 4
  %75 = add nsw i32 %74, 1
  store i32 %75, ptr %11, align 4
  br label %63

76:                                               ; preds = %63
  br label %174

77:                                               ; preds = %47, %31
  %78 = load ptr, ptr %7, align 8
  %79 = load i32, ptr %6, align 4
  %80 = sext i32 %79 to i64
  %81 = getelementptr inbounds i32, ptr %78, i64 %80
  %82 = load i32, ptr %81, align 4
  %83 = load ptr, ptr %7, align 8
  %84 = load i32, ptr %6, align 4
  %85 = sub nsw i32 %84, 1
  %86 = sext i32 %85 to i64
  %87 = getelementptr inbounds i32, ptr %83, i64 %86
  %88 = load i32, ptr %87, align 4
  %89 = icmp sgt i32 %82, %88
  br i1 %89, label %90, label %126

90:                                               ; preds = %77
  %91 = load i32, ptr %6, align 4
  %92 = icmp slt i32 %91, 2
  br i1 %92, label %107, label %93

93:                                               ; preds = %90
  %94 = load ptr, ptr %7, align 8
  %95 = load i32, ptr %6, align 4
  %96 = sub nsw i32 %95, 1
  %97 = sext i32 %96 to i64
  %98 = getelementptr inbounds i32, ptr %94, i64 %97
  %99 = load i32, ptr %98, align 4
  %100 = load ptr, ptr %7, align 8
  %101 = load i32, ptr %6, align 4
  %102 = sub nsw i32 %101, 2
  %103 = sext i32 %102 to i64
  %104 = getelementptr inbounds i32, ptr %100, i64 %103
  %105 = load i32, ptr %104, align 4
  %106 = icmp sgt i32 %99, %105
  br i1 %106, label %107, label %126

107:                                              ; preds = %93, %90
  %108 = load ptr, ptr %8, align 8
  store i32 1, ptr %108, align 4
  store i32 0, ptr %12, align 4
  br label %109

109:                                              ; preds = %122, %107
  %110 = load i32, ptr %12, align 4
  %111 = load i32, ptr %5, align 4
  %112 = icmp slt i32 %110, %111
  br i1 %112, label %113, label %125

113:                                              ; preds = %109
  %114 = load i32, ptr %5, align 4
  %115 = sub nsw i32 %114, 1
  %116 = load i32, ptr %12, align 4
  %117 = sub nsw i32 %115, %116
  %118 = load ptr, ptr %7, align 8
  %119 = load i32, ptr %12, align 4
  %120 = sext i32 %119 to i64
  %121 = getelementptr inbounds i32, ptr %118, i64 %120
  store i32 %117, ptr %121, align 4
  br label %122

122:                                              ; preds = %113
  %123 = load i32, ptr %12, align 4
  %124 = add nsw i32 %123, 1
  store i32 %124, ptr %12, align 4
  br label %109

125:                                              ; preds = %109
  br label %173

126:                                              ; preds = %93, %77
  %127 = load i32, ptr %5, align 4
  %128 = srem i32 %127, 2
  %129 = icmp ne i32 0, %128
  br i1 %129, label %130, label %145

130:                                              ; preds = %126
  br label %131

131:                                              ; preds = %130
  br label %132

132:                                              ; preds = %131
  br label %133

133:                                              ; preds = %132
  %134 = load i64, ptr @H5E_DATATYPE_g, align 8
  %135 = load i64, ptr @H5E_CANTINIT_g, align 8
  %136 = call i32 (ptr, ptr, i32, i64, i64, ptr, ...) @H5E_printf_stack(ptr noundef @.str, ptr noundef @__func__.H5T__fix_order, i32 noundef 332, i64 noundef %134, i64 noundef %135, ptr noundef @.str.11)
  br label %137

137:                                              ; preds = %133
  store i8 1, ptr %10, align 1
  %138 = load i8, ptr %10, align 1
  %139 = trunc i8 %138 to i1
  %140 = zext i1 %139 to i8
  store i8 %140, ptr %10, align 1
  br label %141

141:                                              ; preds = %137
  br label %142

142:                                              ; preds = %141
  store i32 -1, ptr %9, align 4
  br label %175

143:                                              ; No predecessors!
  br label %144

144:                                              ; preds = %143
  br label %145

145:                                              ; preds = %144, %126
  %146 = load ptr, ptr %8, align 8
  store i32 2, ptr %146, align 4
  store i32 0, ptr %13, align 4
  br label %147

147:                                              ; preds = %169, %145
  %148 = load i32, ptr %13, align 4
  %149 = load i32, ptr %5, align 4
  %150 = icmp slt i32 %148, %149
  br i1 %150, label %151, label %172

151:                                              ; preds = %147
  %152 = load i32, ptr %5, align 4
  %153 = sub nsw i32 %152, 2
  %154 = load i32, ptr %13, align 4
  %155 = sub nsw i32 %153, %154
  %156 = load ptr, ptr %7, align 8
  %157 = load i32, ptr %13, align 4
  %158 = sext i32 %157 to i64
  %159 = getelementptr inbounds i32, ptr %156, i64 %158
  store i32 %155, ptr %159, align 4
  %160 = load i32, ptr %5, align 4
  %161 = sub nsw i32 %160, 1
  %162 = load i32, ptr %13, align 4
  %163 = sub nsw i32 %161, %162
  %164 = load ptr, ptr %7, align 8
  %165 = load i32, ptr %13, align 4
  %166 = add nsw i32 %165, 1
  %167 = sext i32 %166 to i64
  %168 = getelementptr inbounds i32, ptr %164, i64 %167
  store i32 %163, ptr %168, align 4
  br label %169

169:                                              ; preds = %151
  %170 = load i32, ptr %13, align 4
  %171 = add nsw i32 %170, 2
  store i32 %171, ptr %13, align 4
  br label %147

172:                                              ; preds = %147
  br label %173

173:                                              ; preds = %172, %125
  br label %174

174:                                              ; preds = %173, %76
  br label %175

175:                                              ; preds = %174, %142, %28
  %176 = load i32, ptr %9, align 4
  ret i32 %176
}