; Function Attrs: nounwind uwtable
define internal fastcc range(i32 -1, 1) i32 @H5T__fix_order(i32 noundef %0, i32 noundef %1, ptr nocapture noundef %2, ptr nocapture noundef writeonly %3) unnamed_addr #0 {
  %5 = icmp slt i32 %1, 1
  br i1 %5, label %6, label %10

6:                                                ; preds = %4
  %7 = load i64, ptr @H5E_DATATYPE_g, align 8
  %8 = load i64, ptr @H5E_CANTINIT_g, align 8
  %9 = tail call i32 (ptr, ptr, i32, i64, i64, ptr, ...) @H5E_printf_stack(ptr noundef nonnull @.str, ptr noundef nonnull @__func__.H5T__fix_order, i32 noundef 308, i64 noundef %7, i64 noundef %8, ptr noundef nonnull @.str.3) #8
  br label %.loopexit

10:                                               ; preds = %4
  %11 = zext nneg i32 %1 to i64
  %12 = getelementptr inbounds i32, ptr %2, i64 %11
  %13 = load i32, ptr %12, align 4
  %14 = getelementptr i8, ptr %12, i64 -4
  %15 = load i32, ptr %14, align 4
  %16 = icmp slt i32 %13, %15
  br i1 %16, label %17, label %27

17:                                               ; preds = %10
  %18 = icmp eq i32 %1, 1
  br i1 %18, label %23, label %19

19:                                               ; preds = %17
  %20 = getelementptr i8, ptr %12, i64 -8
  %21 = load i32, ptr %20, align 4
  %22 = icmp slt i32 %15, %21
  br i1 %22, label %23, label %27

23:                                               ; preds = %19, %17
  store i32 0, ptr %3, align 4
  %24 = icmp sgt i32 %0, 0
  br i1 %24, label %.lr.ph62.preheader, label %.loopexit

.lr.ph62.preheader:                               ; preds = %23
  %wide.trip.count72 = zext nneg i32 %0 to i64
  br label %.lr.ph62

.lr.ph62:                                         ; preds = %.lr.ph62.preheader, %.lr.ph62
  %indvars.iv69 = phi i64 [ 0, %.lr.ph62.preheader ], [ %indvars.iv.next70, %.lr.ph62 ]
  %25 = getelementptr inbounds i32, ptr %2, i64 %indvars.iv69
  %26 = trunc nuw nsw i64 %indvars.iv69 to i32
  store i32 %26, ptr %25, align 4
  %indvars.iv.next70 = add nuw nsw i64 %indvars.iv69, 1
  %exitcond73.not = icmp eq i64 %indvars.iv.next70, %wide.trip.count72
  br i1 %exitcond73.not, label %.loopexit, label %.lr.ph62

27:                                               ; preds = %19, %10
  %28 = icmp sgt i32 %13, %15
  br i1 %28, label %29, label %41

29:                                               ; preds = %27
  %30 = icmp eq i32 %1, 1
  br i1 %30, label %35, label %31

31:                                               ; preds = %29
  %32 = getelementptr i8, ptr %12, i64 -8
  %33 = load i32, ptr %32, align 4
  %34 = icmp sgt i32 %15, %33
  br i1 %34, label %35, label %41

35:                                               ; preds = %31, %29
  store i32 1, ptr %3, align 4
  %36 = icmp sgt i32 %0, 0
  br i1 %36, label %.lr.ph60.preheader, label %.loopexit

.lr.ph60.preheader:                               ; preds = %35
  %wide.trip.count = zext nneg i32 %0 to i64
  br label %.lr.ph60

.lr.ph60:                                         ; preds = %.lr.ph60.preheader, %.lr.ph60
  %indvars.iv66 = phi i64 [ 0, %.lr.ph60.preheader ], [ %indvars.iv.next67, %.lr.ph60 ]
  %37 = trunc nuw nsw i64 %indvars.iv66 to i32
  %38 = xor i32 %37, -1
  %39 = add nsw i32 %38, %0
  %40 = getelementptr inbounds i32, ptr %2, i64 %indvars.iv66
  store i32 %39, ptr %40, align 4
  %indvars.iv.next67 = add nuw nsw i64 %indvars.iv66, 1
  %exitcond.not = icmp eq i64 %indvars.iv.next67, %wide.trip.count
  br i1 %exitcond.not, label %.loopexit, label %.lr.ph60

41:                                               ; preds = %31, %27
  %42 = and i32 %0, 1
  %.not = icmp eq i32 %42, 0
  br i1 %.not, label %47, label %43

43:                                               ; preds = %41
  %44 = load i64, ptr @H5E_DATATYPE_g, align 8
  %45 = load i64, ptr @H5E_CANTINIT_g, align 8
  %46 = tail call i32 (ptr, ptr, i32, i64, i64, ptr, ...) @H5E_printf_stack(ptr noundef nonnull @.str, ptr noundef nonnull @__func__.H5T__fix_order, i32 noundef 332, i64 noundef %44, i64 noundef %45, ptr noundef nonnull @.str.11) #8
  br label %.loopexit

47:                                               ; preds = %41
  store i32 2, ptr %3, align 4
  %48 = icmp sgt i32 %0, 0
  br i1 %48, label %.lr.ph, label %.loopexit

.lr.ph:                                           ; preds = %47
  %49 = add nsw i32 %0, -2
  %50 = zext nneg i32 %0 to i64
  br label %51

51:                                               ; preds = %.lr.ph, %51
  %indvars.iv = phi i64 [ 0, %.lr.ph ], [ %indvars.iv.next, %51 ]
  %52 = trunc nuw nsw i64 %indvars.iv to i32
  %53 = sub i32 %49, %52
  %54 = getelementptr inbounds i32, ptr %2, i64 %indvars.iv
  store i32 %53, ptr %54, align 4
  %55 = xor i32 %52, -1
  %56 = add nsw i32 %55, %0
  %57 = or disjoint i64 %indvars.iv, 1
  %58 = getelementptr inbounds i32, ptr %2, i64 %57
  store i32 %56, ptr %58, align 4
  %indvars.iv.next = add nuw nsw i64 %indvars.iv, 2
  %59 = icmp ult i64 %indvars.iv.next, %50
  br i1 %59, label %51, label %.loopexit

.loopexit:                                        ; preds = %51, %.lr.ph60, %.lr.ph62, %47, %35, %23, %43, %6
  %.051 = phi i32 [ -1, %6 ], [ -1, %43 ], [ 0, %23 ], [ 0, %35 ], [ 0, %47 ], [ 0, %.lr.ph62 ], [ 0, %.lr.ph60 ], [ 0, %51 ]
  ret i32 %.051
}